(lp0
(lp1
I2
aI3
aI1
aI1
aI1
aI1
aI1
aI1
aI1
aI2
aa(lp2
I3
aI3
aI1
aI1
aI1
aI1
aI1
aI1
aI3
aI3
aa(lp3
I3
aI3
aI3
aI1
aI1
aI1
aI1
aI3
aI3
aI3
aa(lp4
I3
aI3
aI3
aI3
aI1
aI1
aI3
aI3
aI3
aI3
aa(lp5
I3
aI3
aI3
aI3
aI3
aI3
aI3
aI3
aI3
aI3
aa(lp6
I3
aI3
aI3
aI3
aI3
aI1
aI3
aI3
aI3
aI3
aa(lp7
I3
aI3
aI3
aI3
aI1
aI1
aI1
aI3
aI3
aI3
aa(lp8
I3
aI3
aI3
aI1
aI1
aI1
aI1
aI1
aI3
aI3
aa(lp9
I3
aI3
aI1
aI1
aI1
aI1
aI1
aI1
aI1
aI1
aa(lp10
I2
aI1
aI1
aI1
aI1
aI1
aI1
aI1
aI1
aI2
aa.