(lp0
(lp1
I1
aI2
aI2
aI2
aI2
aI2
aI2
aI2
aI2
aI1
aa(lp2
I2
aI2
aI2
aI2
aI2
aI2
aI2
aI2
aI2
aI1
aa(lp3
I2
aI2
aI2
aI2
aI2
aI2
aI2
aI2
aI2
aI2
aa(lp4
I2
aI2
aI2
aI2
aI2
aI2
aI2
aI2
aI2
aI2
aa(lp5
I2
aI2
aI2
aI2
aI2
aI2
aI2
aI2
aI2
aI2
aa(lp6
I2
aI2
aI2
aI2
aI2
aI2
aI2
aI2
aI2
aI2
aa(lp7
I2
aI2
aI2
aI2
aI2
aI2
aI2
aI2
aI2
aI2
aa(lp8
I2
aI2
aI2
aI2
aI2
aI2
aI2
aI2
aI2
aI2
aa(lp9
I2
aI2
aI2
aI2
aI2
aI2
aI2
aI2
aI2
aI1
aa(lp10
I1
aI2
aI2
aI2
aI2
aI2
aI2
aI2
aI2
aI1
aa.