(lp0
(lp1
I1
aI2
aI2
aI2
aI2
aI2
aI2
aI1
aa(lp2
I3
aI2
aI2
aI2
aI2
aI2
aI3
aI3
aa(lp3
I3
aI3
aI2
aI2
aI2
aI3
aI3
aI3
aa(lp4
I3
aI3
aI3
aI2
aI3
aI3
aI3
aI3
aa(lp5
I3
aI3
aI3
aI2
aI2
aI3
aI3
aI3
aa(lp6
I3
aI3
aI2
aI2
aI2
aI2
aI3
aI3
aa(lp7
I3
aI2
aI2
aI2
aI2
aI2
aI2
aI3
aa(lp8
I1
aI2
aI2
aI2
aI2
aI2
aI2
aI1
aa.