(lp0
(lp1
I1
aI3
aI3
aI3
aI3
aI3
aI3
aI1
aa(lp2
I3
aI3
aI3
aI3
aI3
aI3
aI3
aI3
aa(lp3
I3
aI3
aI3
aI3
aI3
aI3
aI3
aI3
aa(lp4
I3
aI3
aI3
aI3
aI3
aI3
aI3
aI3
aa(lp5
I4
aI4
aI4
aI4
aI4
aI4
aI4
aI4
aa(lp6
I4
aI4
aI4
aI4
aI4
aI4
aI4
aI4
aa(lp7
I4
aI4
aI4
aI4
aI4
aI4
aI4
aI4
aa(lp8
I1
aI4
aI4
aI4
aI4
aI4
aI4
aI1
aa.