(lp0
(lp1
I1
aI2
aI2
aI2
aI2
aI2
aI1
aa(lp2
I4
aI2
aI2
aI2
aI2
aI2
aI4
aa(lp3
I4
aI4
aI2
aI2
aI2
aI4
aI4
aa(lp4
I4
aI4
aI4
aI2
aI4
aI4
aI4
aa(lp5
I4
aI4
aI2
aI2
aI4
aI4
aI4
aa(lp6
I4
aI2
aI2
aI2
aI2
aI4
aI4
aa(lp7
I1
aI2
aI2
aI2
aI2
aI2
aI1
aa.